; Function Attrs: mustprogress nofree norecurse nosync nounwind willreturn memory(read, inaccessiblemem: none) uwtable
define dso_local noundef nonnull ptr @_ZN5cmsys17SystemInformation11GetVendorIDEv(ptr noundef nonnull readonly align 8 captures(none) dereferenceable(8) %0) local_unnamed_addr #7 align 2 {
  %2 = load ptr, ptr %0, align 8, !tbaa !4
  %3 = load i32, ptr %2, align 8, !tbaa !17
  %4 = icmp ult i32 %3, 16
  br i1 %4, label %switch.lookup, label %_ZN5cmsys31SystemInformationImplementation11GetVendorIDEv.exit

switch.lookup:                                    ; preds = %1
  %5 = zext nneg i32 %3 to i64
  %switch.gep = getelementptr inbounds nuw [16 x ptr], ptr @switch.table._ZN5cmsys31SystemInformationImplementation11GetVendorIDEv, i64 0, i64 %5
  %switch.load = load ptr, ptr %switch.gep, align 8
  br label %_ZN5cmsys31SystemInformationImplementation11GetVendorIDEv.exit

_ZN5cmsys31SystemInformationImplementation11GetVendorIDEv.exit: ; preds = %1, %switch.lookup
  %.0.i = phi ptr [ %switch.load, %switch.lookup ], [ @.str.26, %1 ]
  ret ptr %.0.i
}